target datalayout = "e-m:e-p270:32:32-p271:32:32-p272:64:64-i64:64-i128:128-f80:128-n8:16:32:64-S128"
target triple = "x86_64-pc-linux-gnu"

@.str = private unnamed_addr constant [14 x i8] c"run-command.c\00", align 1

; Function Attrs: nounwind uwtable
define dso_local i32 @exists_in_PATH(ptr noundef %0) #0 {
  %2 = alloca ptr, align 8
  %3 = alloca ptr, align 8
  %4 = alloca i32, align 4
  store ptr %0, ptr %2, align 8, !tbaa !9
  call void @llvm.lifetime.start.p0(i64 8, ptr %3) #13
  %5 = load ptr, ptr %2, align 8, !tbaa !9
  %6 = call ptr @locate_in_PATH(ptr noundef %5)
  store ptr %6, ptr %3, align 8, !tbaa !9
  call void @llvm.lifetime.start.p0(i64 4, ptr %4) #13
  %7 = load ptr, ptr %3, align 8, !tbaa !9
  %8 = icmp ne ptr %7, null
  %9 = zext i1 %8 to i32
  store i32 %9, ptr %4, align 4, !tbaa !16
  %10 = load ptr, ptr %3, align 8, !tbaa !9
  call void @free(ptr noundef %10) #13
  %11 = load i32, ptr %4, align 4, !tbaa !16
  call void @llvm.lifetime.end.p0(i64 4, ptr %4) #13
  call void @llvm.lifetime.end.p0(i64 8, ptr %3) #13
  ret i32 %11
}

; Function Attrs: nounwind uwtable
define dso_local i32 @sane_execvp(ptr noundef %0, ptr noundef %1) #0 {
  %3 = alloca i32, align 4
  %4 = alloca ptr, align 8
  %5 = alloca ptr, align 8
  %6 = alloca i32, align 4
  %7 = alloca i32, align 4
  %8 = alloca i32, align 4
  store ptr %0, ptr %4, align 8, !tbaa !9
  store ptr %1, ptr %5, align 8, !tbaa !20
  call void @llvm.lifetime.start.p0(i64 4, ptr %6) #13
  %9 = load ptr, ptr %4, align 8, !tbaa !9
  %10 = load ptr, ptr %5, align 8, !tbaa !20
  %11 = call i32 @trace2_exec_fl(ptr noundef @.str, i32 noundef 244, ptr noundef %9, ptr noundef %10)
  store i32 %11, ptr %6, align 4, !tbaa !16
  %12 = load ptr, ptr %4, align 8, !tbaa !9
  %13 = load ptr, ptr %5, align 8, !tbaa !20
  %14 = call i32 @execvp(ptr noundef %12, ptr noundef %13) #13
  %15 = icmp ne i32 %14, 0
  br i1 %15, label %17, label %16

16:                                               ; preds = %2
  store i32 0, ptr %3, align 4
  store i32 1, ptr %7, align 4
  br label %49

17:                                               ; preds = %2
  call void @llvm.lifetime.start.p0(i64 4, ptr %8) #13
  %18 = call ptr @__errno_location() #15
  %19 = load i32, ptr %18, align 4, !tbaa !16
  store i32 %19, ptr %8, align 4, !tbaa !16
  %20 = load i32, ptr %6, align 4, !tbaa !16
  %21 = load i32, ptr %8, align 4, !tbaa !16
  call void @trace2_exec_result_fl(ptr noundef @.str, i32 noundef 253, i32 noundef %20, i32 noundef %21)
  %22 = load i32, ptr %8, align 4, !tbaa !16
  %23 = call ptr @__errno_location() #15
  store i32 %22, ptr %23, align 4, !tbaa !16
  call void @llvm.lifetime.end.p0(i64 4, ptr %8) #13
  %24 = call ptr @__errno_location() #15
  %25 = load i32, ptr %24, align 4, !tbaa !16
  %26 = icmp eq i32 %25, 13
  br i1 %26, label %27, label %37

27:                                               ; preds = %17
  %28 = load ptr, ptr %4, align 8, !tbaa !9
  %29 = call ptr @strchr(ptr noundef %28, i32 noundef 47) #14
  %30 = icmp ne ptr %29, null
  br i1 %30, label %37, label %31

31:                                               ; preds = %27
  %32 = load ptr, ptr %4, align 8, !tbaa !9
  %33 = call i32 @exists_in_PATH(ptr noundef %32)
  %34 = icmp ne i32 %33, 0
  %35 = select i1 %34, i32 13, i32 2
  %36 = call ptr @__errno_location() #15
  store i32 %35, ptr %36, align 4, !tbaa !16
  br label %48

37:                                               ; preds = %27, %17
  %38 = call ptr @__errno_location() #15
  %39 = load i32, ptr %38, align 4, !tbaa !16
  %40 = icmp eq i32 %39, 20
  br i1 %40, label %41, label %47

41:                                               ; preds = %37
  %42 = load ptr, ptr %4, align 8, !tbaa !9
  %43 = call ptr @strchr(ptr noundef %42, i32 noundef 47) #14
  %44 = icmp ne ptr %43, null
  br i1 %44, label %47, label %45

45:                                               ; preds = %41
  %46 = call ptr @__errno_location() #15
  store i32 2, ptr %46, align 4, !tbaa !16
  br label %47

47:                                               ; preds = %45, %41, %37
  br label %48

48:                                               ; preds = %47, %31
  store i32 -1, ptr %3, align 4
  store i32 1, ptr %7, align 4
  br label %49

49:                                               ; preds = %48, %16
  call void @llvm.lifetime.end.p0(i64 4, ptr %6) #13
  %50 = load i32, ptr %3, align 4
  ret i32 %50
}