; Function Attrs: nounwind uwtable
define dso_local range(i32 -1, 1) i32 @sane_execvp(ptr noundef %0, ptr noundef %1) local_unnamed_addr #3 {
  %3 = tail call i32 @trace2_exec_fl(ptr noundef nonnull @.str, i32 noundef 244, ptr noundef %0, ptr noundef %1) #21
  %4 = tail call i32 @execvp(ptr noundef %0, ptr noundef %1) #21
  %.not = icmp eq i32 %4, 0
  br i1 %.not, label %.thread, label %5

5:                                                ; preds = %2
  %6 = tail call ptr @__errno_location() #23
  %7 = load i32, ptr %6, align 4, !tbaa !18
  tail call void @trace2_exec_result_fl(ptr noundef nonnull @.str, i32 noundef 253, i32 noundef %3, i32 noundef %7) #21
  store i32 %7, ptr %6, align 4, !tbaa !18
  switch i32 %7, label %.thread [
    i32 13, label %8
    i32 20, label %13
  ]

8:                                                ; preds = %5
  %9 = tail call ptr @strchr(ptr noundef nonnull dereferenceable(1) %0, i32 noundef 47) #22
  %.not10 = icmp eq ptr %9, null
  br i1 %.not10, label %10, label %.thread

10:                                               ; preds = %8
  %11 = tail call fastcc ptr @locate_in_PATH(ptr noundef nonnull %0)
  %.not13 = icmp eq ptr %11, null
  tail call void @free(ptr noundef %11) #21
  %12 = select i1 %.not13, i32 2, i32 13
  br label %.thread.sink.split

13:                                               ; preds = %5
  %14 = tail call ptr @strchr(ptr noundef nonnull dereferenceable(1) %0, i32 noundef 47) #22
  %.not12 = icmp eq ptr %14, null
  br i1 %.not12, label %.thread.sink.split, label %.thread

.thread.sink.split:                               ; preds = %13, %10
  %.sink = phi i32 [ %12, %10 ], [ 2, %13 ]
  store i32 %.sink, ptr %6, align 4, !tbaa !18
  br label %.thread

.thread:                                          ; preds = %.thread.sink.split, %5, %8, %13, %2
  %.0 = phi i32 [ 0, %2 ], [ -1, %13 ], [ -1, %8 ], [ -1, %5 ], [ -1, %.thread.sink.split ]
  ret i32 %.0
}